target datalayout = "e-m:e-p270:32:32-p271:32:32-p272:64:64-i64:64-i128:128-f80:128-n8:16:32:64-S128"
target triple = "x86_64-pc-linux-gnu"

%"class.gmx::Constraints" = type { %"class.std::unique_ptr" }
%"class.std::unique_ptr" = type { %"struct.std::__uniq_ptr_data" }
%"struct.std::__uniq_ptr_data" = type { %"class.std::__uniq_ptr_impl" }
%"class.std::__uniq_ptr_impl" = type { %"class.std::tuple" }
%"class.std::tuple" = type { %"struct.std::_Tuple_impl" }
%"struct.std::_Tuple_impl" = type { %"struct.std::_Head_base.1" }
%"struct.std::_Head_base.1" = type { ptr }
%"class.gmx::ArrayRef.119" = type { %"struct.gmx::ArrayRefIter.120", %"struct.gmx::ArrayRefIter.120" }
%"struct.gmx::ArrayRefIter.120" = type { ptr }
%"class.gmx::ArrayRefWithPadding" = type { ptr, ptr, ptr }
%"class.gmx::BasicVector" = type { [3 x float] }

; Function Attrs: mustprogress nounwind uwtable
define linkonce_odr noundef nonnull align 8 dereferenceable(8) ptr @_ZNSt10_Head_baseILm0EPN3gmx11Constraints4ImplELb0EE7_M_headERKS4_(ptr noundef nonnull align 8 dereferenceable(8) %0) #0 comdat align 2 {
  %2 = alloca ptr, align 8
  store ptr %0, ptr %2, align 8, !tbaa !24
  %3 = load ptr, ptr %2, align 8, !tbaa !24
  %4 = getelementptr inbounds nuw %"struct.std::_Head_base.1", ptr %3, i32 0, i32 0
  ret ptr %4
}

; Function Attrs: mustprogress nounwind uwtable
define linkonce_odr noundef nonnull align 8 dereferenceable(8) ptr @_ZNSt11_Tuple_implILm0EJPN3gmx11Constraints4ImplESt14default_deleteIS2_EEE7_M_headERKS6_(ptr noundef nonnull align 8 dereferenceable(8) %0) #0 comdat align 2 {
  %2 = alloca ptr, align 8
  store ptr %0, ptr %2, align 8, !tbaa !22
  %3 = load ptr, ptr %2, align 8, !tbaa !22
  %4 = call noundef nonnull align 8 dereferenceable(8) ptr @_ZNSt10_Head_baseILm0EPN3gmx11Constraints4ImplELb0EE7_M_headERKS4_(ptr noundef nonnull align 8 dereferenceable(8) %3) #15
  ret ptr %4
}

; Function Attrs: mustprogress nounwind uwtable
define linkonce_odr noundef nonnull align 8 dereferenceable(8) ptr @_ZSt12__get_helperILm0EPN3gmx11Constraints4ImplEJSt14default_deleteIS2_EEERKT0_RKSt11_Tuple_implIXT_EJS6_DpT1_EE(ptr noundef nonnull align 8 dereferenceable(8) %0) #0 comdat {
  %2 = alloca ptr, align 8
  store ptr %0, ptr %2, align 8, !tbaa !22
  %3 = load ptr, ptr %2, align 8, !tbaa !22
  %4 = call noundef nonnull align 8 dereferenceable(8) ptr @_ZNSt11_Tuple_implILm0EJPN3gmx11Constraints4ImplESt14default_deleteIS2_EEE7_M_headERKS6_(ptr noundef nonnull align 8 dereferenceable(8) %3) #15
  ret ptr %4
}

; Function Attrs: mustprogress nounwind uwtable
define linkonce_odr noundef nonnull align 8 dereferenceable(8) ptr @_ZSt3getILm0EJPN3gmx11Constraints4ImplESt14default_deleteIS2_EEERKNSt13tuple_elementIXT_ESt5tupleIJDpT0_EEE4typeERKSA_(ptr noundef nonnull align 8 dereferenceable(8) %0) #0 comdat {
  %2 = alloca ptr, align 8
  store ptr %0, ptr %2, align 8, !tbaa !20
  %3 = load ptr, ptr %2, align 8, !tbaa !20
  %4 = call noundef nonnull align 8 dereferenceable(8) ptr @_ZSt12__get_helperILm0EPN3gmx11Constraints4ImplEJSt14default_deleteIS2_EEERKT0_RKSt11_Tuple_implIXT_EJS6_DpT1_EE(ptr noundef nonnull align 8 dereferenceable(8) %3) #15
  ret ptr %4
}

; Function Attrs: mustprogress nounwind uwtable
define linkonce_odr noundef i64 @_ZNK3gmx12ArrayRefIterINS_11BasicVectorIfEEEmiES3_(ptr noundef nonnull align 8 dereferenceable(8) %0, ptr %1) #0 comdat align 2 {
  %3 = alloca %"struct.gmx::ArrayRefIter.120", align 8
  %4 = alloca ptr, align 8
  %5 = getelementptr inbounds nuw %"struct.gmx::ArrayRefIter.120", ptr %3, i32 0, i32 0
  store ptr %1, ptr %5, align 8
  store ptr %0, ptr %4, align 8, !tbaa !311
  %6 = load ptr, ptr %4, align 8
  %7 = getelementptr inbounds nuw %"struct.gmx::ArrayRefIter.120", ptr %6, i32 0, i32 0
  %8 = load ptr, ptr %7, align 8, !tbaa !313
  %9 = getelementptr inbounds nuw %"struct.gmx::ArrayRefIter.120", ptr %3, i32 0, i32 0
  %10 = load ptr, ptr %9, align 8, !tbaa !313
  %11 = ptrtoint ptr %8 to i64
  %12 = ptrtoint ptr %10 to i64
  %13 = sub i64 %11, %12
  %14 = sdiv exact i64 %13, 12
  ret i64 %14
}

; Function Attrs: mustprogress nounwind uwtable
define linkonce_odr noundef ptr @_ZNK3gmx12ArrayRefIterINS_11BasicVectorIfEEE4dataEv(ptr noundef nonnull align 8 dereferenceable(8) %0) #0 comdat align 2 {
  %2 = alloca ptr, align 8
  store ptr %0, ptr %2, align 8, !tbaa !311
  %3 = load ptr, ptr %2, align 8
  %4 = getelementptr inbounds nuw %"struct.gmx::ArrayRefIter.120", ptr %3, i32 0, i32 0
  %5 = load ptr, ptr %4, align 8, !tbaa !313
  ret ptr %5
}

; Function Attrs: mustprogress nounwind uwtable
define linkonce_odr noundef ptr @_ZNKSt15__uniq_ptr_implIN3gmx11Constraints4ImplESt14default_deleteIS2_EE6_M_ptrEv(ptr noundef nonnull align 8 dereferenceable(8) %0) #0 comdat align 2 {
  %2 = alloca ptr, align 8
  store ptr %0, ptr %2, align 8, !tbaa !16
  %3 = load ptr, ptr %2, align 8
  %4 = getelementptr inbounds nuw %"class.std::__uniq_ptr_impl", ptr %3, i32 0, i32 0
  %5 = call noundef nonnull align 8 dereferenceable(8) ptr @_ZSt3getILm0EJPN3gmx11Constraints4ImplESt14default_deleteIS2_EEERKNSt13tuple_elementIXT_ESt5tupleIJDpT0_EEE4typeERKSA_(ptr noundef nonnull align 8 dereferenceable(8) %4) #15
  %6 = load ptr, ptr %5, align 8, !tbaa !14
  ret ptr %6
}

; Function Attrs: mustprogress nounwind uwtable
define linkonce_odr noundef i64 @_ZNK3gmx8ArrayRefINS_11BasicVectorIfEEE4sizeEv(ptr noundef nonnull align 8 dereferenceable(16) %0) #0 comdat align 2 {
  %2 = alloca ptr, align 8
  %3 = alloca %"struct.gmx::ArrayRefIter.120", align 8
  store ptr %0, ptr %2, align 8, !tbaa !309
  %4 = load ptr, ptr %2, align 8
  %5 = getelementptr inbounds nuw %"class.gmx::ArrayRef.119", ptr %4, i32 0, i32 1
  %6 = getelementptr inbounds nuw %"class.gmx::ArrayRef.119", ptr %4, i32 0, i32 0
  call void @llvm.memcpy.p0.p0.i64(ptr align 8 %3, ptr align 8 %6, i64 8, i1 false)
  %7 = getelementptr inbounds nuw %"struct.gmx::ArrayRefIter.120", ptr %3, i32 0, i32 0
  %8 = load ptr, ptr %7, align 8
  %9 = call noundef i64 @_ZNK3gmx12ArrayRefIterINS_11BasicVectorIfEEEmiES3_(ptr noundef nonnull align 8 dereferenceable(8) %5, ptr %8) #15
  ret i64 %9
}

; Function Attrs: mustprogress nounwind uwtable
define linkonce_odr void @_ZN3gmx12ArrayRefIterINS_11BasicVectorIfEEEC2EPS2_(ptr noundef nonnull align 8 dereferenceable(8) %0, ptr noundef %1) unnamed_addr #0 comdat align 2 {
  %3 = alloca ptr, align 8
  %4 = alloca ptr, align 8
  store ptr %0, ptr %3, align 8, !tbaa !311
  store ptr %1, ptr %4, align 8, !tbaa !304
  %5 = load ptr, ptr %3, align 8
  %6 = getelementptr inbounds nuw %"struct.gmx::ArrayRefIter.120", ptr %5, i32 0, i32 0
  %7 = load ptr, ptr %4, align 8, !tbaa !304
  store ptr %7, ptr %6, align 8, !tbaa !313
  ret void
}

; Function Attrs: mustprogress nounwind uwtable
define linkonce_odr noundef ptr @_ZNK3gmx8ArrayRefINS_11BasicVectorIfEEE4dataEv(ptr noundef nonnull align 8 dereferenceable(16) %0) #0 comdat align 2 {
  %2 = alloca ptr, align 8
  store ptr %0, ptr %2, align 8, !tbaa !309
  %3 = load ptr, ptr %2, align 8
  %4 = getelementptr inbounds nuw %"class.gmx::ArrayRef.119", ptr %3, i32 0, i32 0
  %5 = call noundef ptr @_ZNK3gmx12ArrayRefIterINS_11BasicVectorIfEEE4dataEv(ptr noundef nonnull align 8 dereferenceable(8) %4) #15
  ret ptr %5
}

; Function Attrs: mustprogress nounwind uwtable
define linkonce_odr noundef ptr @_ZNKSt10unique_ptrIN3gmx11Constraints4ImplESt14default_deleteIS2_EE3getEv(ptr noundef nonnull align 8 dereferenceable(8) %0) #0 comdat align 2 {
  %2 = alloca ptr, align 8
  store ptr %0, ptr %2, align 8, !tbaa !9
  %3 = load ptr, ptr %2, align 8
  %4 = getelementptr inbounds nuw %"class.std::unique_ptr", ptr %3, i32 0, i32 0
  %5 = call noundef ptr @_ZNKSt15__uniq_ptr_implIN3gmx11Constraints4ImplESt14default_deleteIS2_EE6_M_ptrEv(ptr noundef nonnull align 8 dereferenceable(8) %4) #15
  ret ptr %5
}

; Function Attrs: mustprogress uwtable
define linkonce_odr void @_ZN3gmx8ArrayRefINS_11BasicVectorIfEEEC2IRS3_vEEOT_(ptr noundef nonnull align 8 dereferenceable(16) %0, ptr noundef nonnull align 8 dereferenceable(16) %1) unnamed_addr #6 comdat align 2 {
  %3 = alloca ptr, align 8
  %4 = alloca ptr, align 8
  store ptr %0, ptr %3, align 8, !tbaa !309
  store ptr %1, ptr %4, align 8, !tbaa !309
  %5 = load ptr, ptr %3, align 8
  %6 = getelementptr inbounds nuw %"class.gmx::ArrayRef.119", ptr %5, i32 0, i32 0
  %7 = load ptr, ptr %4, align 8, !tbaa !309
  %8 = call noundef ptr @_ZNK3gmx8ArrayRefINS_11BasicVectorIfEEE4dataEv(ptr noundef nonnull align 8 dereferenceable(16) %7)
  call void @_ZN3gmx12ArrayRefIterINS_11BasicVectorIfEEEC2EPS2_(ptr noundef nonnull align 8 dereferenceable(8) %6, ptr noundef %8) #15
  %9 = getelementptr inbounds nuw %"class.gmx::ArrayRef.119", ptr %5, i32 0, i32 1
  %10 = load ptr, ptr %4, align 8, !tbaa !309
  %11 = call noundef ptr @_ZNK3gmx8ArrayRefINS_11BasicVectorIfEEE4dataEv(ptr noundef nonnull align 8 dereferenceable(16) %10)
  %12 = load ptr, ptr %4, align 8, !tbaa !309
  %13 = call noundef i64 @_ZNK3gmx8ArrayRefINS_11BasicVectorIfEEE4sizeEv(ptr noundef nonnull align 8 dereferenceable(16) %12)
  %14 = getelementptr inbounds nuw %"class.gmx::BasicVector", ptr %11, i64 %13
  call void @_ZN3gmx12ArrayRefIterINS_11BasicVectorIfEEEC2EPS2_(ptr noundef nonnull align 8 dereferenceable(8) %9, ptr noundef %14) #15
  ret void
}

; Function Attrs: mustprogress nounwind uwtable
define linkonce_odr void @_ZN3gmx19ArrayRefWithPaddingINS_11BasicVectorIfEEEC2EOS3_(ptr noundef nonnull align 8 dereferenceable(24) %0, ptr noundef nonnull align 8 dereferenceable(24) %1) unnamed_addr #0 comdat align 2 {
  %3 = alloca ptr, align 8
  %4 = alloca ptr, align 8
  store ptr %0, ptr %3, align 8, !tbaa !153
  store ptr %1, ptr %4, align 8, !tbaa !153
  %5 = load ptr, ptr %3, align 8
  %6 = getelementptr inbounds nuw %"class.gmx::ArrayRefWithPadding", ptr %5, i32 0, i32 0
  %7 = load ptr, ptr %4, align 8, !tbaa !153
  %8 = getelementptr inbounds nuw %"class.gmx::ArrayRefWithPadding", ptr %7, i32 0, i32 0
  %9 = load ptr, ptr %8, align 8, !tbaa !304
  store ptr %9, ptr %6, align 8, !tbaa !305
  %10 = getelementptr inbounds nuw %"class.gmx::ArrayRefWithPadding", ptr %5, i32 0, i32 1
  %11 = load ptr, ptr %4, align 8, !tbaa !153
  %12 = getelementptr inbounds nuw %"class.gmx::ArrayRefWithPadding", ptr %11, i32 0, i32 1
  %13 = load ptr, ptr %12, align 8, !tbaa !304
  store ptr %13, ptr %10, align 8, !tbaa !307
  %14 = getelementptr inbounds nuw %"class.gmx::ArrayRefWithPadding", ptr %5, i32 0, i32 2
  %15 = load ptr, ptr %4, align 8, !tbaa !153
  %16 = getelementptr inbounds nuw %"class.gmx::ArrayRefWithPadding", ptr %15, i32 0, i32 2
  %17 = load ptr, ptr %16, align 8, !tbaa !304
  store ptr %17, ptr %14, align 8, !tbaa !308
  ret void
}

; Function Attrs: mustprogress nounwind uwtable
define linkonce_odr noundef ptr @_ZNKSt10unique_ptrIN3gmx11Constraints4ImplESt14default_deleteIS2_EEptEv(ptr noundef nonnull align 8 dereferenceable(8) %0) #0 comdat align 2 {
  %2 = alloca ptr, align 8
  store ptr %0, ptr %2, align 8, !tbaa !9
  %3 = load ptr, ptr %2, align 8
  %4 = call noundef ptr @_ZNKSt10unique_ptrIN3gmx11Constraints4ImplESt14default_deleteIS2_EE3getEv(ptr noundef nonnull align 8 dereferenceable(8) %3) #15
  ret ptr %4
}

; Function Attrs: mustprogress uwtable
define noundef zeroext i1 @_ZN3gmx11Constraints5applyEblifNS_19ArrayRefWithPaddingINS_11BasicVectorIfEEEES4_NS_8ArrayRefIS3_EEPA3_KffPfS4_bPA3_fNS_18ConstraintVariableE(ptr noundef nonnull align 8 dereferenceable(8) %0, i1 noundef zeroext %1, i64 noundef %2, i32 noundef %3, float noundef %4, ptr noundef %5, ptr noundef %6, ptr noundef byval(%"class.gmx::ArrayRef.119") align 8 %7, ptr noundef %8, float noundef %9, ptr noundef %10, ptr noundef %11, i1 noundef zeroext %12, ptr noundef %13, i32 noundef %14) #6 align 2 {
  %16 = alloca ptr, align 8
  %17 = alloca i8, align 1
  %18 = alloca i64, align 8
  %19 = alloca i32, align 4
  %20 = alloca float, align 4
  %21 = alloca ptr, align 8
  %22 = alloca ptr, align 8
  %23 = alloca ptr, align 8
  %24 = alloca float, align 4
  %25 = alloca ptr, align 8
  %26 = alloca ptr, align 8
  %27 = alloca i8, align 1
  %28 = alloca ptr, align 8
  %29 = alloca i32, align 4
  %30 = alloca %"class.gmx::ArrayRefWithPadding", align 8
  %31 = alloca %"class.gmx::ArrayRefWithPadding", align 8
  %32 = alloca %"class.gmx::ArrayRef.119", align 8
  %33 = alloca %"class.gmx::ArrayRefWithPadding", align 8
  store ptr %0, ptr %16, align 8, !tbaa !4
  %34 = zext i1 %1 to i8
  store i8 %34, ptr %17, align 1, !tbaa !151
  store i64 %2, ptr %18, align 8, !tbaa !80
  store i32 %3, ptr %19, align 4, !tbaa !82
  store float %4, ptr %20, align 4, !tbaa !152
  store ptr %5, ptr %21, align 8, !tbaa !153
  store ptr %6, ptr %22, align 8, !tbaa !153
  store ptr %8, ptr %23, align 8, !tbaa !155
  store float %9, ptr %24, align 4, !tbaa !152
  store ptr %10, ptr %25, align 8, !tbaa !155
  store ptr %11, ptr %26, align 8, !tbaa !153
  %35 = zext i1 %12 to i8
  store i8 %35, ptr %27, align 1, !tbaa !151
  store ptr %13, ptr %28, align 8, !tbaa !155
  store i32 %14, ptr %29, align 4, !tbaa !156
  %36 = load ptr, ptr %16, align 8
  %37 = getelementptr inbounds nuw %"class.gmx::Constraints", ptr %36, i32 0, i32 0
  %38 = call noundef ptr @_ZNKSt10unique_ptrIN3gmx11Constraints4ImplESt14default_deleteIS2_EEptEv(ptr noundef nonnull align 8 dereferenceable(8) %37) #15
  %39 = load i8, ptr %17, align 1, !tbaa !151, !range !158, !noundef !159
  %40 = trunc i8 %39 to i1
  %41 = load i64, ptr %18, align 8, !tbaa !80
  %42 = load i32, ptr %19, align 4, !tbaa !82
  %43 = load float, ptr %20, align 4, !tbaa !152
  call void @_ZN3gmx19ArrayRefWithPaddingINS_11BasicVectorIfEEEC2EOS3_(ptr noundef nonnull align 8 dereferenceable(24) %30, ptr noundef nonnull align 8 dereferenceable(24) %5) #15
  call void @_ZN3gmx19ArrayRefWithPaddingINS_11BasicVectorIfEEEC2EOS3_(ptr noundef nonnull align 8 dereferenceable(24) %31, ptr noundef nonnull align 8 dereferenceable(24) %6) #15
  call void @_ZN3gmx8ArrayRefINS_11BasicVectorIfEEEC2IRS3_vEEOT_(ptr noundef nonnull align 8 dereferenceable(16) %32, ptr noundef nonnull align 8 dereferenceable(16) %7)
  %44 = load ptr, ptr %23, align 8, !tbaa !155
  %45 = load float, ptr %24, align 4, !tbaa !152
  %46 = load ptr, ptr %25, align 8, !tbaa !155
  call void @_ZN3gmx19ArrayRefWithPaddingINS_11BasicVectorIfEEEC2EOS3_(ptr noundef nonnull align 8 dereferenceable(24) %33, ptr noundef nonnull align 8 dereferenceable(24) %11) #15
  %47 = load i8, ptr %27, align 1, !tbaa !151, !range !158, !noundef !159
  %48 = trunc i8 %47 to i1
  %49 = load ptr, ptr %28, align 8, !tbaa !155
  %50 = load i32, ptr %29, align 4, !tbaa !156
  %51 = call noundef zeroext i1 @_ZN3gmx11Constraints4Impl5applyEblifNS_19ArrayRefWithPaddingINS_11BasicVectorIfEEEES5_NS_8ArrayRefIS4_EEPA3_KffPfS5_bPA3_fNS_18ConstraintVariableE(ptr noundef nonnull align 8 dereferenceable(264) %38, i1 noundef zeroext %40, i64 noundef %41, i32 noundef %42, float noundef %43, ptr noundef %30, ptr noundef %31, ptr noundef byval(%"class.gmx::ArrayRef.119") align 8 %32, ptr noundef %44, float noundef %45, ptr noundef %46, ptr noundef %33, i1 noundef zeroext %48, ptr noundef %49, i32 noundef %50)
  ret i1 %51
}