; Function Attrs: mustprogress uwtable
define noundef zeroext i1 @_ZN3gmx11Constraints5applyEblifNS_19ArrayRefWithPaddingINS_11BasicVectorIfEEEES4_NS_8ArrayRefIS3_EEPA3_KffPfS4_bPA3_fNS_18ConstraintVariableE(ptr noundef nonnull readonly align 8 captures(none) dereferenceable(8) %0, i1 noundef zeroext %1, i64 noundef %2, i32 noundef %3, float noundef %4, ptr noundef readonly captures(none) %5, ptr noundef readonly captures(none) %6, ptr noundef readonly byval(%"class.gmx::ArrayRef.119") align 8 captures(none) %7, ptr noundef %8, float noundef %9, ptr noundef %10, ptr noundef readonly captures(none) %11, i1 noundef zeroext %12, ptr noundef %13, i32 noundef %14) local_unnamed_addr #8 align 2 {
  %16 = alloca %"class.gmx::ArrayRefWithPadding", align 8
  %17 = alloca %"class.gmx::ArrayRefWithPadding", align 8
  %18 = alloca %"class.gmx::ArrayRef.119", align 8
  %19 = alloca %"class.gmx::ArrayRefWithPadding", align 8
  %20 = load ptr, ptr %0, align 8, !tbaa !4
  %21 = load ptr, ptr %5, align 8, !tbaa !78
  store ptr %21, ptr %16, align 8, !tbaa !80
  %22 = getelementptr inbounds nuw i8, ptr %16, i64 8
  %23 = getelementptr inbounds nuw i8, ptr %5, i64 8
  %24 = load ptr, ptr %23, align 8, !tbaa !78
  store ptr %24, ptr %22, align 8, !tbaa !82
  %25 = getelementptr inbounds nuw i8, ptr %16, i64 16
  %26 = getelementptr inbounds nuw i8, ptr %5, i64 16
  %27 = load ptr, ptr %26, align 8, !tbaa !78
  store ptr %27, ptr %25, align 8, !tbaa !83
  %28 = load ptr, ptr %6, align 8, !tbaa !78
  store ptr %28, ptr %17, align 8, !tbaa !80
  %29 = getelementptr inbounds nuw i8, ptr %17, i64 8
  %30 = getelementptr inbounds nuw i8, ptr %6, i64 8
  %31 = load ptr, ptr %30, align 8, !tbaa !78
  store ptr %31, ptr %29, align 8, !tbaa !82
  %32 = getelementptr inbounds nuw i8, ptr %17, i64 16
  %33 = getelementptr inbounds nuw i8, ptr %6, i64 16
  %34 = load ptr, ptr %33, align 8, !tbaa !78
  store ptr %34, ptr %32, align 8, !tbaa !83
  %35 = load ptr, ptr %7, align 8, !tbaa !84
  store ptr %35, ptr %18, align 8, !tbaa !84
  %36 = getelementptr inbounds nuw i8, ptr %18, i64 8
  %37 = getelementptr inbounds nuw i8, ptr %7, i64 8
  %38 = load ptr, ptr %37, align 8, !tbaa !84
  %39 = ptrtoint ptr %38 to i64
  %40 = ptrtoint ptr %35 to i64
  %41 = sub i64 %39, %40
  %42 = getelementptr inbounds nuw i8, ptr %35, i64 %41
  store ptr %42, ptr %36, align 8, !tbaa !84
  %43 = load ptr, ptr %11, align 8, !tbaa !78
  store ptr %43, ptr %19, align 8, !tbaa !80
  %44 = getelementptr inbounds nuw i8, ptr %19, i64 8
  %45 = getelementptr inbounds nuw i8, ptr %11, i64 8
  %46 = load ptr, ptr %45, align 8, !tbaa !78
  store ptr %46, ptr %44, align 8, !tbaa !82
  %47 = getelementptr inbounds nuw i8, ptr %19, i64 16
  %48 = getelementptr inbounds nuw i8, ptr %11, i64 16
  %49 = load ptr, ptr %48, align 8, !tbaa !78
  store ptr %49, ptr %47, align 8, !tbaa !83
  %50 = call noundef zeroext i1 @_ZN3gmx11Constraints4Impl5applyEblifNS_19ArrayRefWithPaddingINS_11BasicVectorIfEEEES5_NS_8ArrayRefIS4_EEPA3_KffPfS5_bPA3_fNS_18ConstraintVariableE(ptr noundef nonnull align 8 dereferenceable(264) %20, i1 noundef zeroext %1, i64 noundef %2, i32 noundef %3, float noundef %4, ptr noundef nonnull %16, ptr noundef nonnull %17, ptr noundef nonnull byval(%"class.gmx::ArrayRef.119") align 8 %18, ptr noundef %8, float noundef %9, ptr noundef %10, ptr noundef nonnull %19, i1 noundef zeroext %12, ptr noundef %13, i32 noundef %14)
  ret i1 %50
}